target datalayout = "e-m:e-p270:32:32-p271:32:32-p272:64:64-i64:64-i128:128-f80:128-n8:16:32:64-S128"
target triple = "x86_64-pc-linux-gnu"

%struct._lv_event_t = type { ptr, ptr, i32, ptr, ptr, ptr, i8 }
%struct._lv_obj_t = type { ptr, ptr, ptr, ptr, ptr, %struct.lv_area_t, i32, i16, i16 }
%struct.lv_area_t = type { i32, i32, i32, i32 }
%struct._lv_obj_class_t = type { ptr, ptr, ptr, ptr, ptr, ptr, i32, i32, i32 }

; Function Attrs: nounwind uwtable
define i32 @lv_obj_event_base(ptr noundef %0, ptr noundef %1) #0 {
  %3 = alloca i32, align 4
  %4 = alloca ptr, align 8
  %5 = alloca ptr, align 8
  %6 = alloca ptr, align 8
  %7 = alloca i32, align 4
  %8 = alloca i32, align 4
  store ptr %0, ptr %4, align 8, !tbaa !3
  store ptr %1, ptr %5, align 8, !tbaa !3
  call void @llvm.lifetime.start.p0(i64 8, ptr %6) #3
  %9 = load ptr, ptr %4, align 8, !tbaa !3
  %10 = icmp eq ptr %9, null
  br i1 %10, label %11, label %17

11:                                               ; preds = %2
  %12 = load ptr, ptr %5, align 8, !tbaa !3
  %13 = getelementptr inbounds nuw %struct._lv_event_t, ptr %12, i32 0, i32 0
  %14 = load ptr, ptr %13, align 8, !tbaa !9
  %15 = getelementptr inbounds nuw %struct._lv_obj_t, ptr %14, i32 0, i32 0
  %16 = load ptr, ptr %15, align 8, !tbaa !19
  store ptr %16, ptr %6, align 8, !tbaa !3
  br label %21

17:                                               ; preds = %2
  %18 = load ptr, ptr %4, align 8, !tbaa !3
  %19 = getelementptr inbounds nuw %struct._lv_obj_class_t, ptr %18, i32 0, i32 0
  %20 = load ptr, ptr %19, align 8, !tbaa !20
  store ptr %20, ptr %6, align 8, !tbaa !3
  br label %21

21:                                               ; preds = %17, %11
  br label %22

22:                                               ; preds = %32, %21
  %23 = load ptr, ptr %6, align 8, !tbaa !3
  %24 = icmp ne ptr %23, null
  br i1 %24, label %25, label %30

25:                                               ; preds = %22
  %26 = load ptr, ptr %6, align 8, !tbaa !3
  %27 = getelementptr inbounds nuw %struct._lv_obj_class_t, ptr %26, i32 0, i32 3
  %28 = load ptr, ptr %27, align 8, !tbaa !22
  %29 = icmp eq ptr %28, null
  br label %30

30:                                               ; preds = %25, %22
  %31 = phi i1 [ false, %22 ], [ %29, %25 ]
  br i1 %31, label %32, label %36

32:                                               ; preds = %30
  %33 = load ptr, ptr %6, align 8, !tbaa !3
  %34 = getelementptr inbounds nuw %struct._lv_obj_class_t, ptr %33, i32 0, i32 0
  %35 = load ptr, ptr %34, align 8, !tbaa !20
  store ptr %35, ptr %6, align 8, !tbaa !3
  br label %22, !llvm.loop !23

36:                                               ; preds = %30
  %37 = load ptr, ptr %6, align 8, !tbaa !3
  %38 = icmp eq ptr %37, null
  br i1 %38, label %39, label %40

39:                                               ; preds = %36
  store i32 1, ptr %3, align 4
  store i32 1, ptr %7, align 4
  br label %62

40:                                               ; preds = %36
  %41 = load ptr, ptr %6, align 8, !tbaa !3
  %42 = getelementptr inbounds nuw %struct._lv_obj_class_t, ptr %41, i32 0, i32 3
  %43 = load ptr, ptr %42, align 8, !tbaa !22
  %44 = icmp eq ptr %43, null
  br i1 %44, label %45, label %46

45:                                               ; preds = %40
  store i32 1, ptr %3, align 4
  store i32 1, ptr %7, align 4
  br label %62

46:                                               ; preds = %40
  %47 = load ptr, ptr %5, align 8, !tbaa !3
  %48 = getelementptr inbounds nuw %struct._lv_event_t, ptr %47, i32 0, i32 3
  store ptr null, ptr %48, align 8, !tbaa !13
  %49 = load ptr, ptr %6, align 8, !tbaa !3
  %50 = getelementptr inbounds nuw %struct._lv_obj_class_t, ptr %49, i32 0, i32 3
  %51 = load ptr, ptr %50, align 8, !tbaa !22
  %52 = load ptr, ptr %6, align 8, !tbaa !3
  %53 = load ptr, ptr %5, align 8, !tbaa !3
  call void %51(ptr noundef %52, ptr noundef %53)
  call void @llvm.lifetime.start.p0(i64 4, ptr %8) #3
  store i32 1, ptr %8, align 4, !tbaa !7
  %54 = load ptr, ptr %5, align 8, !tbaa !3
  %55 = getelementptr inbounds nuw %struct._lv_event_t, ptr %54, i32 0, i32 6
  %56 = load i8, ptr %55, align 8
  %57 = and i8 %56, 1
  %58 = icmp ne i8 %57, 0
  br i1 %58, label %59, label %60

59:                                               ; preds = %46
  store i32 0, ptr %8, align 4, !tbaa !7
  br label %60

60:                                               ; preds = %59, %46
  %61 = load i32, ptr %8, align 4, !tbaa !7
  store i32 %61, ptr %3, align 4
  store i32 1, ptr %7, align 4
  call void @llvm.lifetime.end.p0(i64 4, ptr %8) #3
  br label %62

62:                                               ; preds = %60, %45, %39
  call void @llvm.lifetime.end.p0(i64 8, ptr %6) #3
  %63 = load i32, ptr %3, align 4
  ret i32 %63
}