; Function Attrs: nounwind uwtable
define range(i32 0, 2) i32 @lv_obj_event_base(ptr noundef readonly %0, ptr noundef %1) local_unnamed_addr #0 {
  %3 = icmp eq ptr %0, null
  br i1 %3, label %4, label %.preheader

4:                                                ; preds = %2
  %5 = load ptr, ptr %1, align 8, !tbaa !3
  br label %.preheader

.preheader:                                       ; preds = %2, %4
  %.1.in.ph = phi ptr [ %0, %2 ], [ %5, %4 ]
  br label %6

6:                                                ; preds = %.preheader, %7
  %.1.in = phi ptr [ %.1, %7 ], [ %.1.in.ph, %.preheader ]
  %.1 = load ptr, ptr %.1.in, align 8, !tbaa !17
  %cond = icmp eq ptr %.1, null
  br i1 %cond, label %.loopexit, label %7

7:                                                ; preds = %6
  %8 = getelementptr inbounds nuw i8, ptr %.1, i64 24
  %9 = load ptr, ptr %8, align 8, !tbaa !18
  %10 = icmp eq ptr %9, null
  br i1 %10, label %6, label %.critedge, !llvm.loop !20

.critedge:                                        ; preds = %7
  %11 = getelementptr inbounds nuw i8, ptr %1, i64 24
  store ptr null, ptr %11, align 8, !tbaa !11
  tail call void %9(ptr noundef nonnull %.1, ptr noundef %1) #4
  %12 = getelementptr inbounds nuw i8, ptr %1, i64 48
  %13 = load i8, ptr %12, align 8
  %14 = and i8 %13, 1
  %15 = xor i8 %14, 1
  %spec.store.select = zext nneg i8 %15 to i32
  br label %.loopexit

.loopexit:                                        ; preds = %6, %.critedge
  %.0 = phi i32 [ %spec.store.select, %.critedge ], [ 1, %6 ]
  ret i32 %.0
}